; Function Attrs: nounwind uwtable
define internal void @gtk3_paint_vline(i32 noundef %0, i32 %1, ptr noundef %2, i32 noundef %3, i32 noundef %4, i32 %5, i32 noundef %6) #0 {
  %8 = tail call fastcc ptr @gtk3_get_widget(i32 noundef %0)
  store ptr %8, ptr @gtk3_widget, align 8
  %9 = load ptr, ptr @fp_gtk_widget_get_style_context, align 8
  %10 = tail call ptr %9(ptr noundef %8) #19
  %11 = load ptr, ptr @fp_gtk_style_context_save, align 8
  tail call void %11(ptr noundef %10) #19
  %.not = icmp eq ptr %2, null
  br i1 %.not, label %13, label %12

12:                                               ; preds = %7
  tail call fastcc void @transform_detail_string(ptr noundef nonnull %2, ptr noundef %10)
  br label %13

13:                                               ; preds = %12, %7
  %14 = load ptr, ptr @fp_gtk_render_line, align 8
  %15 = load ptr, ptr @cr, align 8
  %16 = sitofp i32 %3 to double
  %17 = sitofp i32 %4 to double
  %18 = add nsw i32 %6, %4
  %19 = sitofp i32 %18 to double
  tail call void %14(ptr noundef %10, ptr noundef %15, double noundef %16, double noundef %17, double noundef %16, double noundef %19) #19
  %20 = load ptr, ptr @fp_gtk_style_context_restore, align 8
  tail call void %20(ptr noundef %10) #19
  ret void
}